; Function Attrs: nounwind uwtable
define void @Nwk_ManSupportSum(ptr noundef %0) local_unnamed_addr #0 {
  %2 = getelementptr inbounds nuw i8, ptr %0, i64 24
  %3 = load ptr, ptr %2, align 8
  %4 = getelementptr i8, ptr %3, i64 4
  %.val1013 = load i32, ptr %4, align 4
  %5 = icmp sgt i32 %.val1013, 0
  br i1 %5, label %.lr.ph, label %.critedge

.lr.ph:                                           ; preds = %1, %Vec_PtrFree.exit
  %indvars.iv = phi i64 [ %indvars.iv.next, %Vec_PtrFree.exit ], [ 0, %1 ]
  %6 = phi ptr [ %21, %Vec_PtrFree.exit ], [ %3, %1 ]
  %.015 = phi i32 [ %18, %Vec_PtrFree.exit ], [ 0, %1 ]
  %7 = getelementptr i8, ptr %6, i64 8
  %.val11 = load ptr, ptr %7, align 8
  %8 = getelementptr inbounds nuw ptr, ptr %.val11, i64 %indvars.iv
  %9 = load ptr, ptr %8, align 8
  tail call void @Nwk_ManIncrementTravId(ptr noundef nonnull %0) #9
  %10 = tail call noalias dereferenceable_or_null(16) ptr @malloc(i64 noundef 16) #10
  %11 = getelementptr inbounds nuw i8, ptr %10, i64 4
  store i32 0, ptr %11, align 4
  store i32 100, ptr %10, align 8
  %12 = tail call noalias dereferenceable_or_null(800) ptr @malloc(i64 noundef 800) #10
  %13 = getelementptr inbounds nuw i8, ptr %10, i64 8
  store ptr %12, ptr %13, align 8
  %14 = getelementptr i8, ptr %9, i64 32
  %.val.i = load i32, ptr %14, align 8
  %15 = and i32 %.val.i, 7
  %.not.i = icmp eq i32 %15, 2
  br i1 %.not.i, label %16, label %Nwk_ManSupportNodes.exit

16:                                               ; preds = %.lr.ph
  %17 = getelementptr i8, ptr %9, i64 72
  %.val12.i = load ptr, ptr %17, align 8
  %.val12.val.i = load ptr, ptr %.val12.i, align 8
  br label %Nwk_ManSupportNodes.exit

Nwk_ManSupportNodes.exit:                         ; preds = %16, %.lr.ph
  %.val12.val.sink.i = phi ptr [ %.val12.val.i, %16 ], [ %9, %.lr.ph ]
  tail call void @Nwk_ManSupportNodes_rec(ptr noundef %.val12.val.sink.i, ptr noundef nonnull %10)
  %.val = load i32, ptr %11, align 4
  %18 = add nsw i32 %.val, %.015
  %19 = load ptr, ptr %13, align 8
  %.not.i12 = icmp eq ptr %19, null
  br i1 %.not.i12, label %Vec_PtrFree.exit, label %20

20:                                               ; preds = %Nwk_ManSupportNodes.exit
  tail call void @free(ptr noundef nonnull %19) #9
  br label %Vec_PtrFree.exit

Vec_PtrFree.exit:                                 ; preds = %Nwk_ManSupportNodes.exit, %20
  tail call void @free(ptr noundef nonnull %10) #9
  %indvars.iv.next = add nuw nsw i64 %indvars.iv, 1
  %21 = load ptr, ptr %2, align 8
  %22 = getelementptr i8, ptr %21, i64 4
  %.val10 = load i32, ptr %22, align 4
  %23 = sext i32 %.val10 to i64
  %24 = icmp slt i64 %indvars.iv.next, %23
  br i1 %24, label %.lr.ph, label %.critedge, !llvm.loop !30

.critedge:                                        ; preds = %Vec_PtrFree.exit, %1
  %.0.lcssa = phi i32 [ 0, %1 ], [ %18, %Vec_PtrFree.exit ]
  %25 = tail call i32 (ptr, ...) @printf(ptr noundef nonnull dereferenceable(1) @.str.2, i32 noundef %.0.lcssa)
  ret void
}